; Function Attrs: nounwind uwtable
define ptr @l_Array_mapMUnsafe_map___at_Lean_Elab_PartialFixpoint_derivePartialCorrectness___spec__2___lambda__1___boxed(ptr noundef %0, ptr noundef %1, ptr noundef %2, ptr noundef %3, ptr noundef %4, ptr noundef %5, ptr noundef %6) #0 {
  %8 = tail call ptr @lean_array_push(ptr noundef %0, ptr noundef %1) #6
  %9 = load ptr, ptr @l_Array_mapMUnsafe_map___at_Lean_Elab_PartialFixpoint_derivePartialCorrectness___spec__2___lambda__1___closed__1, align 8, !tbaa !9
  %10 = tail call ptr @l_Lean_Meta_mkForallFVars(ptr noundef %8, ptr noundef %9, i8 noundef zeroext 0, i8 noundef zeroext 1, i8 noundef zeroext 1, ptr noundef %2, ptr noundef %3, ptr noundef %4, ptr noundef %5, ptr noundef %6) #6
  %11 = ptrtoint ptr %8 to i64
  %12 = and i64 %11, 1
  %.not.i21 = icmp eq i64 %12, 0
  br i1 %.not.i21, label %13, label %l_Array_mapMUnsafe_map___at_Lean_Elab_PartialFixpoint_derivePartialCorrectness___spec__2___lambda__1.exit

13:                                               ; preds = %7
  %14 = load i32, ptr %8, align 4, !tbaa !4
  %15 = icmp sgt i32 %14, 1
  br i1 %15, label %16, label %18, !prof !14

16:                                               ; preds = %13
  %17 = add nsw i32 %14, -1
  store i32 %17, ptr %8, align 4, !tbaa !4
  br label %l_Array_mapMUnsafe_map___at_Lean_Elab_PartialFixpoint_derivePartialCorrectness___spec__2___lambda__1.exit

18:                                               ; preds = %13
  %.not.i.i = icmp eq i32 %14, 0
  br i1 %.not.i.i, label %l_Array_mapMUnsafe_map___at_Lean_Elab_PartialFixpoint_derivePartialCorrectness___spec__2___lambda__1.exit, label %19

19:                                               ; preds = %18
  tail call void @lean_dec_ref_cold(ptr noundef nonnull %8) #6
  br label %l_Array_mapMUnsafe_map___at_Lean_Elab_PartialFixpoint_derivePartialCorrectness___spec__2___lambda__1.exit

l_Array_mapMUnsafe_map___at_Lean_Elab_PartialFixpoint_derivePartialCorrectness___spec__2___lambda__1.exit: ; preds = %7, %16, %18, %19
  %20 = ptrtoint ptr %5 to i64
  %21 = and i64 %20, 1
  %.not = icmp eq i64 %21, 0
  br i1 %.not, label %22, label %lean_dec.exit14

22:                                               ; preds = %l_Array_mapMUnsafe_map___at_Lean_Elab_PartialFixpoint_derivePartialCorrectness___spec__2___lambda__1.exit
  %23 = load i32, ptr %5, align 4, !tbaa !4
  %24 = icmp sgt i32 %23, 1
  br i1 %24, label %25, label %27, !prof !14

25:                                               ; preds = %22
  %26 = add nsw i32 %23, -1
  store i32 %26, ptr %5, align 4, !tbaa !4
  br label %lean_dec.exit14

27:                                               ; preds = %22
  %.not.i = icmp eq i32 %23, 0
  br i1 %.not.i, label %lean_dec.exit14, label %28

28:                                               ; preds = %27
  tail call void @lean_dec_ref_cold(ptr noundef nonnull %5) #6
  br label %lean_dec.exit14

lean_dec.exit14:                                  ; preds = %28, %27, %25, %l_Array_mapMUnsafe_map___at_Lean_Elab_PartialFixpoint_derivePartialCorrectness___spec__2___lambda__1.exit
  %29 = ptrtoint ptr %4 to i64
  %30 = and i64 %29, 1
  %.not22 = icmp eq i64 %30, 0
  br i1 %.not22, label %31, label %lean_dec.exit13

31:                                               ; preds = %lean_dec.exit14
  %32 = load i32, ptr %4, align 4, !tbaa !4
  %33 = icmp sgt i32 %32, 1
  br i1 %33, label %34, label %36, !prof !14

34:                                               ; preds = %31
  %35 = add nsw i32 %32, -1
  store i32 %35, ptr %4, align 4, !tbaa !4
  br label %lean_dec.exit13

36:                                               ; preds = %31
  %.not.i15 = icmp eq i32 %32, 0
  br i1 %.not.i15, label %lean_dec.exit13, label %37

37:                                               ; preds = %36
  tail call void @lean_dec_ref_cold(ptr noundef nonnull %4) #6
  br label %lean_dec.exit13

lean_dec.exit13:                                  ; preds = %37, %36, %34, %lean_dec.exit14
  %38 = ptrtoint ptr %3 to i64
  %39 = and i64 %38, 1
  %.not23 = icmp eq i64 %39, 0
  br i1 %.not23, label %40, label %lean_dec.exit12

40:                                               ; preds = %lean_dec.exit13
  %41 = load i32, ptr %3, align 4, !tbaa !4
  %42 = icmp sgt i32 %41, 1
  br i1 %42, label %43, label %45, !prof !14

43:                                               ; preds = %40
  %44 = add nsw i32 %41, -1
  store i32 %44, ptr %3, align 4, !tbaa !4
  br label %lean_dec.exit12

45:                                               ; preds = %40
  %.not.i17 = icmp eq i32 %41, 0
  br i1 %.not.i17, label %lean_dec.exit12, label %46

46:                                               ; preds = %45
  tail call void @lean_dec_ref_cold(ptr noundef nonnull %3) #6
  br label %lean_dec.exit12

lean_dec.exit12:                                  ; preds = %46, %45, %43, %lean_dec.exit13
  %47 = ptrtoint ptr %2 to i64
  %48 = and i64 %47, 1
  %.not24 = icmp eq i64 %48, 0
  br i1 %.not24, label %49, label %lean_dec.exit

49:                                               ; preds = %lean_dec.exit12
  %50 = load i32, ptr %2, align 4, !tbaa !4
  %51 = icmp sgt i32 %50, 1
  br i1 %51, label %52, label %54, !prof !14

52:                                               ; preds = %49
  %53 = add nsw i32 %50, -1
  store i32 %53, ptr %2, align 4, !tbaa !4
  br label %lean_dec.exit

54:                                               ; preds = %49
  %.not.i19 = icmp eq i32 %50, 0
  br i1 %.not.i19, label %lean_dec.exit, label %55

55:                                               ; preds = %54
  tail call void @lean_dec_ref_cold(ptr noundef nonnull %2) #6
  br label %lean_dec.exit

lean_dec.exit:                                    ; preds = %55, %54, %52, %lean_dec.exit12
  ret ptr %10
}